target datalayout = "e-m:e-p270:32:32-p271:32:32-p272:64:64-i64:64-i128:128-f80:128-n8:16:32:64-S128"
target triple = "x86_64-pc-linux-gnu"

%struct._generic_N_Vector = type { ptr, ptr, ptr }
%struct._N_VectorContent_Serial = type { i64, i32, ptr }

@.str.21 = private unnamed_addr constant [37 x i8] c"     l=x+1          x         u=1-x\0A\00", align 1
@.str.22 = private unnamed_addr constant [39 x i8] c"   ----------------------------------\0A\00", align 1
@.str.23 = private unnamed_addr constant [27 x i8] c" %10.6g   %10.6g   %10.6g\0A\00", align 1

; Function Attrs: nounwind uwtable
define internal void @PrintOutput(ptr noundef %0) #0 {
  %2 = alloca ptr, align 8
  %3 = alloca i32, align 4
  store ptr %0, ptr %2, align 8, !tbaa !4
  call void @llvm.lifetime.start.p0(i64 4, ptr %3) #5
  %4 = call i32 (ptr, ...) @printf(ptr noundef @.str.21)
  %5 = call i32 (ptr, ...) @printf(ptr noundef @.str.22)
  store i32 1, ptr %3, align 4, !tbaa !14
  br label %6

6:                                                ; preds = %43, %1
  %7 = load i32, ptr %3, align 4, !tbaa !14
  %8 = icmp sle i32 %7, 8
  br i1 %8, label %9, label %46

9:                                                ; preds = %6
  %10 = load ptr, ptr %2, align 8, !tbaa !4
  %11 = getelementptr inbounds nuw %struct._generic_N_Vector, ptr %10, i32 0, i32 0
  %12 = load ptr, ptr %11, align 8, !tbaa !18
  %13 = getelementptr inbounds nuw %struct._N_VectorContent_Serial, ptr %12, i32 0, i32 2
  %14 = load ptr, ptr %13, align 8, !tbaa !21
  %15 = load i32, ptr %3, align 4, !tbaa !14
  %16 = add nsw i32 %15, 8
  %17 = sub nsw i32 %16, 1
  %18 = sext i32 %17 to i64
  %19 = getelementptr inbounds double, ptr %14, i64 %18
  %20 = load double, ptr %19, align 8, !tbaa !25
  %21 = load ptr, ptr %2, align 8, !tbaa !4
  %22 = getelementptr inbounds nuw %struct._generic_N_Vector, ptr %21, i32 0, i32 0
  %23 = load ptr, ptr %22, align 8, !tbaa !18
  %24 = getelementptr inbounds nuw %struct._N_VectorContent_Serial, ptr %23, i32 0, i32 2
  %25 = load ptr, ptr %24, align 8, !tbaa !21
  %26 = load i32, ptr %3, align 4, !tbaa !14
  %27 = sub nsw i32 %26, 1
  %28 = sext i32 %27 to i64
  %29 = getelementptr inbounds double, ptr %25, i64 %28
  %30 = load double, ptr %29, align 8, !tbaa !25
  %31 = load ptr, ptr %2, align 8, !tbaa !4
  %32 = getelementptr inbounds nuw %struct._generic_N_Vector, ptr %31, i32 0, i32 0
  %33 = load ptr, ptr %32, align 8, !tbaa !18
  %34 = getelementptr inbounds nuw %struct._N_VectorContent_Serial, ptr %33, i32 0, i32 2
  %35 = load ptr, ptr %34, align 8, !tbaa !21
  %36 = load i32, ptr %3, align 4, !tbaa !14
  %37 = add nsw i32 %36, 16
  %38 = sub nsw i32 %37, 1
  %39 = sext i32 %38 to i64
  %40 = getelementptr inbounds double, ptr %35, i64 %39
  %41 = load double, ptr %40, align 8, !tbaa !25
  %42 = call i32 (ptr, ...) @printf(ptr noundef @.str.23, double noundef %20, double noundef %30, double noundef %41)
  br label %43

43:                                               ; preds = %9
  %44 = load i32, ptr %3, align 4, !tbaa !14
  %45 = add nsw i32 %44, 1
  store i32 %45, ptr %3, align 4, !tbaa !14
  br label %6

46:                                               ; preds = %6
  call void @llvm.lifetime.end.p0(i64 4, ptr %3) #5
  ret void
}