; Function Attrs: nofree nounwind uwtable
define internal fastcc void @PrintOutput(ptr noundef readonly captures(none) %0) unnamed_addr #4 {
  %puts = tail call i32 @puts(ptr nonnull dereferenceable(1) @str.6)
  %puts7 = tail call i32 @puts(ptr nonnull dereferenceable(1) @str.7)
  br label %2

2:                                                ; preds = %1, %2
  %indvars.iv = phi i64 [ 1, %1 ], [ %indvars.iv.next, %2 ]
  %3 = load ptr, ptr %0, align 8, !tbaa !12
  %4 = getelementptr inbounds nuw i8, ptr %3, i64 16
  %5 = load ptr, ptr %4, align 8, !tbaa !15
  %6 = getelementptr inbounds nuw double, ptr %5, i64 %indvars.iv
  %7 = getelementptr inbounds nuw i8, ptr %6, i64 56
  %8 = load double, ptr %7, align 8, !tbaa !20
  %9 = getelementptr i8, ptr %6, i64 -8
  %10 = load double, ptr %9, align 8, !tbaa !20
  %11 = getelementptr inbounds nuw i8, ptr %6, i64 120
  %12 = load double, ptr %11, align 8, !tbaa !20
  %13 = tail call i32 (ptr, ...) @printf(ptr noundef nonnull dereferenceable(1) @.str.23, double noundef %8, double noundef %10, double noundef %12)
  %indvars.iv.next = add nuw nsw i64 %indvars.iv, 1
  %exitcond.not = icmp eq i64 %indvars.iv.next, 9
  br i1 %exitcond.not, label %14, label %2

14:                                               ; preds = %2
  ret void
}